target datalayout = "e-m:e-p270:32:32-p271:32:32-p272:64:64-i64:64-i128:128-f80:128-n8:16:32:64-S128"
target triple = "x86_64-pc-linux-gnu"

%"class.std::__cxx11::basic_string" = type { %"struct.std::__cxx11::basic_string<char>::_Alloc_hider", i64, %union.anon }
%"struct.std::__cxx11::basic_string<char>::_Alloc_hider" = type { ptr }
%union.anon = type { i64, [8 x i8] }
%"struct.(anonymous namespace)::ShadowMapping" = type { i32, i64, i8, i8 }
%"class.(anonymous namespace)::ModuleAddressSanitizer" = type { ptr, i8, i8, i8, i8, i8, i8, i8, i32, i32, ptr, ptr, ptr, %"class.llvm::Triple", %"struct.(anonymous namespace)::ShadowMapping", %"class.llvm::FunctionCallee", %"class.llvm::FunctionCallee", %"class.llvm::FunctionCallee", %"class.llvm::FunctionCallee", %"class.llvm::FunctionCallee", %"class.llvm::FunctionCallee", %"class.llvm::FunctionCallee", %"class.llvm::FunctionCallee", ptr, ptr, ptr }
%"class.llvm::Triple" = type { %"class.std::__cxx11::basic_string", i32, i32, i32, i32, i32, i32 }
%"class.llvm::FunctionCallee" = type { ptr, ptr }
%"class.llvm::Twine" = type <{ %"union.llvm::Twine::Child", %"union.llvm::Twine::Child", i8, i8, [6 x i8] }>
%"union.llvm::Twine::Child" = type { %struct.anon }
%struct.anon = type { ptr, i64 }
%"class.llvm::ilist_iterator_w_bits" = type <{ ptr, i8, i8, [6 x i8] }>
%"class.llvm::ArrayRef.376" = type { ptr, i64 }
%"class.llvm::InsertPosition" = type { %"class.llvm::ilist_iterator_w_bits" }
%"class.std::initializer_list.394" = type { ptr, i64 }

@.str.176 = private unnamed_addr constant [1 x i8] zeroinitializer, align 1
@_ZL19kAsanModuleDtorName = internal constant [17 x i8] c"asan.module_dtor\00", align 16

; Function Attrs: mustprogress nounwind uwtable
define linkonce_odr hidden noundef i64 @_ZNKSt16initializer_listIPN4llvm11GlobalValueEE4sizeEv(ptr noundef nonnull align 8 dereferenceable(16) %0) #1 comdat align 2 {
  %2 = alloca ptr, align 8
  store ptr %0, ptr %2, align 8
  %3 = load ptr, ptr %2, align 8
  %4 = getelementptr inbounds nuw %"class.std::initializer_list.394", ptr %3, i32 0, i32 1
  %5 = load i64, ptr %4, align 8
  ret i64 %5
}

; Function Attrs: mustprogress nounwind uwtable
define linkonce_odr hidden noundef ptr @_ZNKSt16initializer_listIPN4llvm11GlobalValueEE3endEv(ptr noundef nonnull align 8 dereferenceable(16) %0) #1 comdat align 2 {
  %2 = alloca ptr, align 8
  store ptr %0, ptr %2, align 8
  %3 = load ptr, ptr %2, align 8
  %4 = call noundef ptr @_ZNKSt16initializer_listIPN4llvm11GlobalValueEE5beginEv(ptr noundef nonnull align 8 dereferenceable(16) %3) #2
  %5 = call noundef i64 @_ZNKSt16initializer_listIPN4llvm11GlobalValueEE4sizeEv(ptr noundef nonnull align 8 dereferenceable(16) %3) #2
  %6 = getelementptr inbounds ptr, ptr %4, i64 %5
  ret ptr %6
}

; Function Attrs: mustprogress nounwind uwtable
define linkonce_odr hidden noundef ptr @_ZNKSt16initializer_listIPN4llvm11GlobalValueEE5beginEv(ptr noundef nonnull align 8 dereferenceable(16) %0) #1 comdat align 2 {
  %2 = alloca ptr, align 8
  store ptr %0, ptr %2, align 8
  %3 = load ptr, ptr %2, align 8
  %4 = getelementptr inbounds nuw %"class.std::initializer_list.394", ptr %3, i32 0, i32 0
  %5 = load ptr, ptr %4, align 8
  ret ptr %5
}

; Function Attrs: mustprogress nounwind uwtable
define linkonce_odr hidden noundef ptr @_ZN4llvm10ReturnInst6CreateERNS_11LLVMContextEPNS_10BasicBlockE(ptr noundef nonnull align 8 dereferenceable(8) %0, ptr noundef %1) #1 comdat align 2 {
  %3 = alloca ptr, align 8
  %4 = alloca ptr, align 8
  %5 = alloca %"class.llvm::InsertPosition", align 8
  store ptr %0, ptr %3, align 8
  store ptr %1, ptr %4, align 8
  %6 = call noundef ptr @_ZN4llvm4UsernwEmj(i64 noundef 72, i32 noundef 0)
  %7 = load ptr, ptr %3, align 8
  %8 = load ptr, ptr %4, align 8
  call void @_ZN4llvm14InsertPositionC1EPNS_10BasicBlockE(ptr noundef nonnull align 8 dereferenceable(16) %5, ptr noundef %8)
  %9 = getelementptr inbounds nuw { ptr, i64 }, ptr %5, i32 0, i32 0
  %10 = load ptr, ptr %9, align 8
  %11 = getelementptr inbounds nuw { ptr, i64 }, ptr %5, i32 0, i32 1
  %12 = load i64, ptr %11, align 8
  call void @_ZN4llvm10ReturnInstC1ERNS_11LLVMContextEPNS_5ValueENS_14InsertPositionE(ptr noundef nonnull align 8 dereferenceable(72) %6, ptr noundef nonnull align 8 dereferenceable(8) %7, ptr noundef null, ptr %10, i64 %12)
  ret ptr %6
}

; Function Attrs: mustprogress nounwind uwtable
define linkonce_odr hidden noundef ptr @_ZN4llvm10BasicBlock6CreateERNS_11LLVMContextERKNS_5TwineEPNS_8FunctionEPS0_(ptr noundef nonnull align 8 dereferenceable(8) %0, ptr noundef nonnull align 8 dereferenceable(34) %1, ptr noundef %2, ptr noundef %3) #1 comdat align 2 {
  %5 = alloca ptr, align 8
  %6 = alloca ptr, align 8
  %7 = alloca ptr, align 8
  %8 = alloca ptr, align 8
  store ptr %0, ptr %5, align 8
  store ptr %1, ptr %6, align 8
  store ptr %2, ptr %7, align 8
  store ptr %3, ptr %8, align 8
  %9 = call noalias noundef nonnull ptr @_Znwm(i64 noundef 80) #16
  %10 = load ptr, ptr %5, align 8
  %11 = load ptr, ptr %6, align 8
  %12 = load ptr, ptr %7, align 8
  %13 = load ptr, ptr %8, align 8
  call void @_ZN4llvm10BasicBlockC1ERNS_11LLVMContextERKNS_5TwineEPNS_8FunctionEPS0_(ptr noundef nonnull align 8 dereferenceable(80) %9, ptr noundef nonnull align 8 dereferenceable(8) %10, ptr noundef nonnull align 8 dereferenceable(34) %11, ptr noundef %12, ptr noundef %13)
  ret ptr %9
}

; Function Attrs: mustprogress nounwind uwtable
define linkonce_odr hidden void @_ZN4llvm8ArrayRefIPNS_11GlobalValueEEC2ERKSt16initializer_listIS2_E(ptr noundef nonnull align 8 dereferenceable(16) %0, ptr noundef nonnull align 8 dereferenceable(16) %1) unnamed_addr #1 comdat align 2 {
  %3 = alloca ptr, align 8
  %4 = alloca ptr, align 8
  store ptr %0, ptr %3, align 8
  store ptr %1, ptr %4, align 8
  %5 = load ptr, ptr %3, align 8
  %6 = getelementptr inbounds nuw %"class.llvm::ArrayRef.376", ptr %5, i32 0, i32 0
  %7 = load ptr, ptr %4, align 8
  %8 = call noundef ptr @_ZNKSt16initializer_listIPN4llvm11GlobalValueEE5beginEv(ptr noundef nonnull align 8 dereferenceable(16) %7) #2
  %9 = load ptr, ptr %4, align 8
  %10 = call noundef ptr @_ZNKSt16initializer_listIPN4llvm11GlobalValueEE3endEv(ptr noundef nonnull align 8 dereferenceable(16) %9) #2
  %11 = icmp eq ptr %8, %10
  br i1 %11, label %12, label %13

12:                                               ; preds = %2
  br label %16

13:                                               ; preds = %2
  %14 = load ptr, ptr %4, align 8
  %15 = call noundef ptr @_ZNKSt16initializer_listIPN4llvm11GlobalValueEE5beginEv(ptr noundef nonnull align 8 dereferenceable(16) %14) #2
  br label %16

16:                                               ; preds = %13, %12
  %17 = phi ptr [ null, %12 ], [ %15, %13 ]
  store ptr %17, ptr %6, align 8
  %18 = getelementptr inbounds nuw %"class.llvm::ArrayRef.376", ptr %5, i32 0, i32 1
  %19 = load ptr, ptr %4, align 8
  %20 = call noundef i64 @_ZNKSt16initializer_listIPN4llvm11GlobalValueEE4sizeEv(ptr noundef nonnull align 8 dereferenceable(16) %19) #2
  store i64 %20, ptr %18, align 8
  ret void
}

; Function Attrs: mustprogress nounwind uwtable
define linkonce_odr hidden void @_ZN4llvm5TwineC2EPKc(ptr noundef nonnull align 8 dereferenceable(34) %0, ptr noundef %1) unnamed_addr #1 comdat align 2 {
  %3 = alloca ptr, align 8
  %4 = alloca ptr, align 8
  store ptr %0, ptr %3, align 8
  store ptr %1, ptr %4, align 8
  %5 = load ptr, ptr %3, align 8
  %6 = getelementptr inbounds nuw %"class.llvm::Twine", ptr %5, i32 0, i32 2
  store i8 1, ptr %6, align 8
  %7 = getelementptr inbounds nuw %"class.llvm::Twine", ptr %5, i32 0, i32 3
  store i8 1, ptr %7, align 1
  %8 = load ptr, ptr %4, align 8
  %9 = getelementptr inbounds i8, ptr %8, i64 0
  %10 = load i8, ptr %9, align 1
  %11 = sext i8 %10 to i32
  %12 = icmp ne i32 %11, 0
  br i1 %12, label %13, label %17

13:                                               ; preds = %2
  %14 = load ptr, ptr %4, align 8
  %15 = getelementptr inbounds nuw %"class.llvm::Twine", ptr %5, i32 0, i32 0
  store ptr %14, ptr %15, align 8
  %16 = getelementptr inbounds nuw %"class.llvm::Twine", ptr %5, i32 0, i32 2
  store i8 3, ptr %16, align 8
  br label %19

17:                                               ; preds = %2
  %18 = getelementptr inbounds nuw %"class.llvm::Twine", ptr %5, i32 0, i32 2
  store i8 1, ptr %18, align 8
  br label %19

19:                                               ; preds = %17, %13
  ret void
}

; Function Attrs: mustprogress nounwind uwtable
define internal noundef ptr @_ZN12_GLOBAL__N_122ModuleAddressSanitizer20CreateAsanModuleDtorEv(ptr noundef nonnull align 8 dereferenceable(280) %0) #1 align 2 {
  %2 = alloca ptr, align 8
  %3 = alloca %"class.llvm::Twine", align 8
  %4 = alloca %"class.llvm::ArrayRef.376", align 8
  %5 = alloca %"class.std::initializer_list.394", align 8
  %6 = alloca [1 x ptr], align 8
  %7 = alloca ptr, align 8
  %8 = alloca %"class.llvm::Twine", align 8
  store ptr %0, ptr %2, align 8
  %9 = load ptr, ptr %2, align 8
  %10 = getelementptr inbounds nuw %"class.(anonymous namespace)::ModuleAddressSanitizer", ptr %9, i32 0, i32 12
  %11 = load ptr, ptr %10, align 8
  %12 = call noundef ptr @_ZN4llvm4Type9getVoidTyERNS_11LLVMContextE(ptr noundef nonnull align 8 dereferenceable(8) %11)
  %13 = call noundef ptr @_ZN4llvm12FunctionType3getEPNS_4TypeEb(ptr noundef %12, i1 noundef zeroext false)
  call void @_ZN4llvm5TwineC2EPKc(ptr noundef nonnull align 8 dereferenceable(34) %3, ptr noundef @_ZL19kAsanModuleDtorName)
  %14 = getelementptr inbounds nuw %"class.(anonymous namespace)::ModuleAddressSanitizer", ptr %9, i32 0, i32 0
  %15 = load ptr, ptr %14, align 8
  %16 = call noundef ptr @_ZN4llvm8Function21createWithDefaultAttrEPNS_12FunctionTypeENS_11GlobalValue12LinkageTypesEjRKNS_5TwineEPNS_6ModuleE(ptr noundef %13, i32 noundef 7, i32 noundef 0, ptr noundef nonnull align 8 dereferenceable(34) %3, ptr noundef %15)
  %17 = getelementptr inbounds nuw %"class.(anonymous namespace)::ModuleAddressSanitizer", ptr %9, i32 0, i32 24
  store ptr %16, ptr %17, align 8
  %18 = getelementptr inbounds nuw %"class.(anonymous namespace)::ModuleAddressSanitizer", ptr %9, i32 0, i32 24
  %19 = load ptr, ptr %18, align 8
  call void @_ZN4llvm8Function9addFnAttrENS_9Attribute8AttrKindE(ptr noundef nonnull align 8 dereferenceable(136) %19, i32 noundef 39)
  %20 = getelementptr inbounds nuw %"class.(anonymous namespace)::ModuleAddressSanitizer", ptr %9, i32 0, i32 0
  %21 = load ptr, ptr %20, align 8
  %22 = getelementptr inbounds nuw %"class.(anonymous namespace)::ModuleAddressSanitizer", ptr %9, i32 0, i32 24
  %23 = load ptr, ptr %22, align 8
  store ptr %23, ptr %6, align 8
  %24 = getelementptr inbounds nuw %"class.std::initializer_list.394", ptr %5, i32 0, i32 0
  store ptr %6, ptr %24, align 8
  %25 = getelementptr inbounds nuw %"class.std::initializer_list.394", ptr %5, i32 0, i32 1
  store i64 1, ptr %25, align 8
  call void @_ZN4llvm8ArrayRefIPNS_11GlobalValueEEC2ERKSt16initializer_listIS2_E(ptr noundef nonnull align 8 dereferenceable(16) %4, ptr noundef nonnull align 8 dereferenceable(16) %5)
  %26 = getelementptr inbounds nuw { ptr, i64 }, ptr %4, i32 0, i32 0
  %27 = load ptr, ptr %26, align 8
  %28 = getelementptr inbounds nuw { ptr, i64 }, ptr %4, i32 0, i32 1
  %29 = load i64, ptr %28, align 8
  call void @_ZN4llvm12appendToUsedERNS_6ModuleENS_8ArrayRefIPNS_11GlobalValueEEE(ptr noundef nonnull align 8 dereferenceable(857) %21, ptr %27, i64 %29)
  %30 = getelementptr inbounds nuw %"class.(anonymous namespace)::ModuleAddressSanitizer", ptr %9, i32 0, i32 12
  %31 = load ptr, ptr %30, align 8
  call void @_ZN4llvm5TwineC2EPKc(ptr noundef nonnull align 8 dereferenceable(34) %8, ptr noundef @.str.176)
  %32 = getelementptr inbounds nuw %"class.(anonymous namespace)::ModuleAddressSanitizer", ptr %9, i32 0, i32 24
  %33 = load ptr, ptr %32, align 8
  %34 = call noundef ptr @_ZN4llvm10BasicBlock6CreateERNS_11LLVMContextERKNS_5TwineEPNS_8FunctionEPS0_(ptr noundef nonnull align 8 dereferenceable(8) %31, ptr noundef nonnull align 8 dereferenceable(34) %8, ptr noundef %33, ptr noundef null)
  store ptr %34, ptr %7, align 8
  %35 = getelementptr inbounds nuw %"class.(anonymous namespace)::ModuleAddressSanitizer", ptr %9, i32 0, i32 12
  %36 = load ptr, ptr %35, align 8
  %37 = load ptr, ptr %7, align 8
  %38 = call noundef ptr @_ZN4llvm10ReturnInst6CreateERNS_11LLVMContextEPNS_10BasicBlockE(ptr noundef nonnull align 8 dereferenceable(8) %36, ptr noundef %37)
  ret ptr %38
}