; Function Attrs: mustprogress nounwind uwtable
define internal fastcc noundef ptr @_ZN12_GLOBAL__N_122ModuleAddressSanitizer20CreateAsanModuleDtorEv(ptr noundef nonnull align 8 captures(none) dereferenceable(280) initializes((264, 272)) %0) unnamed_addr #0 align 2 {
  %2 = alloca %"class.llvm::InsertPosition", align 8
  %3 = alloca %"class.llvm::Twine", align 8
  %4 = alloca [1 x ptr], align 8
  %5 = alloca %"class.llvm::Twine", align 8
  %6 = getelementptr inbounds nuw i8, ptr %0, i64 40
  %7 = load ptr, ptr %6, align 8
  %8 = tail call noundef ptr @_ZN4llvm4Type9getVoidTyERNS_11LLVMContextE(ptr noundef nonnull align 8 dereferenceable(8) %7) #22
  %9 = tail call noundef ptr @_ZN4llvm12FunctionType3getEPNS_4TypeEb(ptr noundef %8, i1 noundef zeroext false) #22
  %10 = getelementptr inbounds nuw i8, ptr %3, i64 32
  %11 = getelementptr inbounds nuw i8, ptr %3, i64 33
  store i8 1, ptr %11, align 1
  store ptr @_ZL19kAsanModuleDtorName, ptr %3, align 8
  store i8 3, ptr %10, align 8
  %12 = load ptr, ptr %0, align 8
  %13 = call noundef ptr @_ZN4llvm8Function21createWithDefaultAttrEPNS_12FunctionTypeENS_11GlobalValue12LinkageTypesEjRKNS_5TwineEPNS_6ModuleE(ptr noundef %9, i32 noundef 7, i32 noundef 0, ptr noundef nonnull align 8 dereferenceable(34) %3, ptr noundef %12) #22
  %14 = getelementptr inbounds nuw i8, ptr %0, i64 264
  store ptr %13, ptr %14, align 8
  call void @_ZN4llvm8Function9addFnAttrENS_9Attribute8AttrKindE(ptr noundef nonnull align 8 dereferenceable(136) %13, i32 noundef 39) #22
  %15 = load ptr, ptr %0, align 8
  %16 = load ptr, ptr %14, align 8
  store ptr %16, ptr %4, align 8
  call void @_ZN4llvm12appendToUsedERNS_6ModuleENS_8ArrayRefIPNS_11GlobalValueEEE(ptr noundef nonnull align 8 dereferenceable(857) %15, ptr nonnull %4, i64 1) #22
  %17 = load ptr, ptr %6, align 8
  %18 = getelementptr inbounds nuw i8, ptr %5, i64 32
  store i16 257, ptr %18, align 8
  %19 = load ptr, ptr %14, align 8
  %20 = call noalias noundef nonnull dereferenceable(80) ptr @_Znwm(i64 noundef 80) #24
  call void @_ZN4llvm10BasicBlockC1ERNS_11LLVMContextERKNS_5TwineEPNS_8FunctionEPS0_(ptr noundef nonnull align 8 dereferenceable(80) %20, ptr noundef nonnull align 8 dereferenceable(8) %17, ptr noundef nonnull align 8 dereferenceable(34) %5, ptr noundef %19, ptr noundef null) #22
  %21 = load ptr, ptr %6, align 8
  call void @llvm.lifetime.start.p0(i64 16, ptr nonnull %2)
  %22 = call noundef ptr @_ZN4llvm4UsernwEmj(i64 noundef 72, i32 noundef 0) #22
  call void @_ZN4llvm14InsertPositionC1EPNS_10BasicBlockE(ptr noundef nonnull align 8 dereferenceable(16) %2, ptr noundef nonnull %20) #22
  %23 = load ptr, ptr %2, align 8
  %24 = getelementptr inbounds nuw i8, ptr %2, i64 8
  %25 = load i64, ptr %24, align 8
  call void @_ZN4llvm10ReturnInstC1ERNS_11LLVMContextEPNS_5ValueENS_14InsertPositionE(ptr noundef nonnull align 8 dereferenceable(72) %22, ptr noundef nonnull align 8 dereferenceable(8) %21, ptr noundef null, ptr %23, i64 %25) #22
  call void @llvm.lifetime.end.p0(i64 16, ptr nonnull %2)
  ret ptr %22
}